; ModuleID = '25/1241.cpp'
source_filename = "25/1241.cpp"
target datalayout = "e-m:e-p270:32:32-p271:32:32-p272:64:64-i64:64-f80:128-n8:16:32:64-S128"
target triple = "x86_64-pc-linux-gnu"

%"class.std::ios_base::Init" = type { i8 }
%"class.std::basic_istream" = type { i32 (...)**, i64, %"class.std::basic_ios" }
%"class.std::basic_ios" = type { %"class.std::ios_base", %"class.std::basic_ostream"*, i8, i8, %"class.std::basic_streambuf"*, %"class.std::ctype"*, %"class.std::num_put"*, %"class.std::num_get"* }
%"class.std::ios_base" = type { i32 (...)**, i64, i64, i32, i32, i32, %"struct.std::ios_base::_Callback_list"*, %"struct.std::ios_base::_Words", [8 x %"struct.std::ios_base::_Words"], i32, %"struct.std::ios_base::_Words"*, %"class.std::locale" }
%"struct.std::ios_base::_Callback_list" = type { %"struct.std::ios_base::_Callback_list"*, void (i32, %"class.std::ios_base"*, i32)*, i32, i32 }
%"struct.std::ios_base::_Words" = type { i8*, i64 }
%"class.std::locale" = type { %"class.std::locale::_Impl"* }
%"class.std::locale::_Impl" = type { i32, %"class.std::locale::facet"**, i64, %"class.std::locale::facet"**, i8** }
%"class.std::locale::facet" = type <{ i32 (...)**, i32, [4 x i8] }>
%"class.std::basic_ostream" = type { i32 (...)**, %"class.std::basic_ios" }
%"class.std::basic_streambuf" = type { i32 (...)**, i8*, i8*, i8*, i8*, i8*, i8*, %"class.std::locale" }
%"class.std::ctype" = type <{ %"class.std::locale::facet.base", [4 x i8], %struct.__locale_struct*, i8, [7 x i8], i32*, i32*, i16*, i8, [256 x i8], [256 x i8], i8, [6 x i8] }>
%"class.std::locale::facet.base" = type <{ i32 (...)**, i32 }>
%struct.__locale_struct = type { [13 x %struct.__locale_data*], i16*, i32*, i32*, [13 x i8*] }
%struct.__locale_data = type opaque
%"class.std::num_put" = type { %"class.std::locale::facet.base", [4 x i8] }
%"class.std::num_get" = type { %"class.std::locale::facet.base", [4 x i8] }

@_ZStL8__ioinit = internal global %"class.std::ios_base::Init" zeroinitializer, align 1
@__dso_handle = external hidden global i8
@_ZSt3cin = external dso_local global %"class.std::basic_istream", align 8
@_ZSt4cout = external dso_local global %"class.std::basic_ostream", align 8
@llvm.global_ctors = appending global [1 x { i32, void ()*, i8* }] [{ i32, void ()*, i8* } { i32 65535, void ()* @_GLOBAL__sub_I_1241.cpp, i8* null }]

; Function Attrs: noinline uwtable
define internal void @__cxx_global_var_init() #0 section ".text.startup" {
  call void @_ZNSt8ios_base4InitC1Ev(%"class.std::ios_base::Init"* @_ZStL8__ioinit)
  %1 = call i32 @__cxa_atexit(void (i8*)* bitcast (void (%"class.std::ios_base::Init"*)* @_ZNSt8ios_base4InitD1Ev to void (i8*)*), i8* getelementptr inbounds (%"class.std::ios_base::Init", %"class.std::ios_base::Init"* @_ZStL8__ioinit, i32 0, i32 0), i8* @__dso_handle) #3
  ret void
}

declare dso_local void @_ZNSt8ios_base4InitC1Ev(%"class.std::ios_base::Init"*) unnamed_addr #1

; Function Attrs: nounwind
declare dso_local void @_ZNSt8ios_base4InitD1Ev(%"class.std::ios_base::Init"*) unnamed_addr #2

; Function Attrs: nounwind
declare dso_local i32 @__cxa_atexit(void (i8*)*, i8*, i8*) #3

; Function Attrs: noinline norecurse uwtable
define dso_local i32 @main() #4 {
  %1 = alloca i32, align 4
  %2 = alloca i32, align 4
  %3 = alloca i32, align 4
  %4 = alloca i32, align 4
  %5 = alloca [32 x i32], align 16
  %6 = alloca [32 x i32], align 16
  store i32 0, i32* %1, align 4
  %7 = bitcast [32 x i32]* %5 to i8*
  call void @llvm.memset.p0i8.i64(i8* align 16 %7, i8 0, i64 128, i1 false)
  %8 = bitcast i8* %7 to <{ i32, [31 x i32] }>*
  %9 = getelementptr inbounds <{ i32, [31 x i32] }>, <{ i32, [31 x i32] }>* %8, i32 0, i32 0
  store i32 1, i32* %9, align 16
  %10 = call dereferenceable(280) %"class.std::basic_istream"* @_ZNSirsERi(%"class.std::basic_istream"* @_ZSt3cin, i32* dereferenceable(4) %2)
  store i32 1, i32* %3, align 4
  br label %11

11:                                               ; preds = %59, %0
  %12 = load i32, i32* %3, align 4
  %13 = load i32, i32* %2, align 4
  %14 = icmp sle i32 %12, %13
  br i1 %14, label %15, label %62

15:                                               ; preds = %11
  store i32 0, i32* %4, align 4
  br label %16

16:                                               ; preds = %28, %15
  %17 = load i32, i32* %4, align 4
  %18 = icmp slt i32 %17, 32
  br i1 %18, label %19, label %31

19:                                               ; preds = %16
  %20 = load i32, i32* %4, align 4
  %21 = sext i32 %20 to i64
  %22 = getelementptr inbounds [32 x i32], [32 x i32]* %5, i64 0, i64 %21
  %23 = load i32, i32* %22, align 4
  %24 = mul nsw i32 %23, 2
  %25 = load i32, i32* %4, align 4
  %26 = sext i32 %25 to i64
  %27 = getelementptr inbounds [32 x i32], [32 x i32]* %6, i64 0, i64 %26
  store i32 %24, i32* %27, align 4
  br label %28

28:                                               ; preds = %19
  %29 = load i32, i32* %4, align 4
  %30 = add nsw i32 %29, 1
  store i32 %30, i32* %4, align 4
  br label %16

31:                                               ; preds = %16
  %32 = getelementptr inbounds [32 x i32], [32 x i32]* %6, i64 0, i64 0
  %33 = load i32, i32* %32, align 16
  %34 = srem i32 %33, 10
  %35 = getelementptr inbounds [32 x i32], [32 x i32]* %5, i64 0, i64 0
  store i32 %34, i32* %35, align 16
  store i32 1, i32* %4, align 4
  br label %36

36:                                               ; preds = %55, %31
  %37 = load i32, i32* %4, align 4
  %38 = icmp slt i32 %37, 32
  br i1 %38, label %39, label %58

39:                                               ; preds = %36
  %40 = load i32, i32* %4, align 4
  %41 = sext i32 %40 to i64
  %42 = getelementptr inbounds [32 x i32], [32 x i32]* %6, i64 0, i64 %41
  %43 = load i32, i32* %42, align 4
  %44 = srem i32 %43, 10
  %45 = load i32, i32* %4, align 4
  %46 = sub nsw i32 %45, 1
  %47 = sext i32 %46 to i64
  %48 = getelementptr inbounds [32 x i32], [32 x i32]* %6, i64 0, i64 %47
  %49 = load i32, i32* %48, align 4
  %50 = sdiv i32 %49, 10
  %51 = add nsw i32 %44, %50
  %52 = load i32, i32* %4, align 4
  %53 = sext i32 %52 to i64
  %54 = getelementptr inbounds [32 x i32], [32 x i32]* %5, i64 0, i64 %53
  store i32 %51, i32* %54, align 4
  br label %55

55:                                               ; preds = %39
  %56 = load i32, i32* %4, align 4
  %57 = add nsw i32 %56, 1
  store i32 %57, i32* %4, align 4
  br label %36

58:                                               ; preds = %36
  br label %59

59:                                               ; preds = %58
  %60 = load i32, i32* %3, align 4
  %61 = add nsw i32 %60, 1
  store i32 %61, i32* %3, align 4
  br label %11

62:                                               ; preds = %11
  store i32 31, i32* %4, align 4
  br label %63

63:                                               ; preds = %69, %62
  %64 = load i32, i32* %4, align 4
  %65 = sext i32 %64 to i64
  %66 = getelementptr inbounds [32 x i32], [32 x i32]* %5, i64 0, i64 %65
  %67 = load i32, i32* %66, align 4
  %68 = icmp eq i32 %67, 0
  br i1 %68, label %69, label %72

69:                                               ; preds = %63
  %70 = load i32, i32* %4, align 4
  %71 = add nsw i32 %70, -1
  store i32 %71, i32* %4, align 4
  br label %63

72:                                               ; preds = %63
  %73 = load i32, i32* %4, align 4
  store i32 %73, i32* %3, align 4
  br label %74

74:                                               ; preds = %83, %72
  %75 = load i32, i32* %3, align 4
  %76 = icmp sge i32 %75, 0
  br i1 %76, label %77, label %86

77:                                               ; preds = %74
  %78 = load i32, i32* %3, align 4
  %79 = sext i32 %78 to i64
  %80 = getelementptr inbounds [32 x i32], [32 x i32]* %5, i64 0, i64 %79
  %81 = load i32, i32* %80, align 4
  %82 = call dereferenceable(272) %"class.std::basic_ostream"* @_ZNSolsEi(%"class.std::basic_ostream"* @_ZSt4cout, i32 %81)
  br label %83

83:                                               ; preds = %77
  %84 = load i32, i32* %3, align 4
  %85 = add nsw i32 %84, -1
  store i32 %85, i32* %3, align 4
  br label %74

86:                                               ; preds = %74
  ret i32 0
}

; Function Attrs: argmemonly nounwind willreturn
declare void @llvm.memset.p0i8.i64(i8* nocapture writeonly, i8, i64, i1 immarg) #5

declare dso_local dereferenceable(280) %"class.std::basic_istream"* @_ZNSirsERi(%"class.std::basic_istream"*, i32* dereferenceable(4)) #1

declare dso_local dereferenceable(272) %"class.std::basic_ostream"* @_ZNSolsEi(%"class.std::basic_ostream"*, i32) #1

; Function Attrs: noinline uwtable
define internal void @_GLOBAL__sub_I_1241.cpp() #0 section ".text.startup" {
  call void @__cxx_global_var_init()
  ret void
}


!llvm.module.flags = !{!0}
!llvm.ident = !{!1}

!0 = !{i32 1, !"wchar_size", i32 4}
!1 = !{!"clang version 10.0.0-4ubuntu1 "}
